target datalayout = "e-m:e-p270:32:32-p271:32:32-p272:64:64-i64:64-i128:128-f80:128-n8:16:32:64-S128"
target triple = "x86_64-pc-linux-gnu"

%struct._generic_N_Vector = type { ptr, ptr, ptr }
%struct._N_VectorContent_Serial = type { i64, i32, ptr }
%struct._generic_SUNMatrix = type { ptr, ptr, ptr }
%struct._SUNMatrixContent_Dense = type { i64, i64, ptr, i64, ptr }

; Function Attrs: nounwind uwtable
define internal double @s(double noundef %0, ptr noundef %1) #0 {
  %3 = alloca double, align 8
  %4 = alloca ptr, align 8
  %5 = alloca ptr, align 8
  store double %0, ptr %3, align 8, !tbaa !11
  store ptr %1, ptr %4, align 8, !tbaa !17
  call void @llvm.lifetime.start.p0(i64 8, ptr %5) #6
  %6 = load ptr, ptr %4, align 8, !tbaa !17
  store ptr %6, ptr %5, align 8, !tbaa !36
  %7 = load ptr, ptr %5, align 8, !tbaa !36
  %8 = getelementptr inbounds double, ptr %7, i64 1
  %9 = load double, ptr %8, align 8, !tbaa !11
  %10 = load double, ptr %3, align 8, !tbaa !11
  %11 = fmul double %9, %10
  %12 = call double @cos(double noundef %11) #6, !tbaa !4
  call void @llvm.lifetime.end.p0(i64 8, ptr %5) #6
  ret double %12
}

; Function Attrs: nounwind uwtable
define internal double @r(double noundef %0, ptr noundef %1) #0 {
  %3 = alloca double, align 8
  %4 = alloca ptr, align 8
  store double %0, ptr %3, align 8, !tbaa !11
  store ptr %1, ptr %4, align 8, !tbaa !17
  %5 = load double, ptr %3, align 8, !tbaa !11
  %6 = call double @cos(double noundef %5) #6, !tbaa !4
  %7 = fmul double 5.000000e-01, %6
  ret double %7
}

; Function Attrs: nounwind uwtable
define internal i32 @Jf(double noundef %0, ptr noundef %1, ptr noundef %2, ptr noundef %3, ptr noundef %4, ptr noundef %5, ptr noundef %6, ptr noundef %7) #0 {
  %9 = alloca double, align 8
  %10 = alloca ptr, align 8
  %11 = alloca ptr, align 8
  %12 = alloca ptr, align 8
  %13 = alloca ptr, align 8
  %14 = alloca ptr, align 8
  %15 = alloca ptr, align 8
  %16 = alloca ptr, align 8
  %17 = alloca ptr, align 8
  %18 = alloca double, align 8
  %19 = alloca double, align 8
  %20 = alloca double, align 8
  store double %0, ptr %9, align 8, !tbaa !11
  store ptr %1, ptr %10, align 8, !tbaa !15
  store ptr %2, ptr %11, align 8, !tbaa !15
  store ptr %3, ptr %12, align 8, !tbaa !24
  store ptr %4, ptr %13, align 8, !tbaa !17
  store ptr %5, ptr %14, align 8, !tbaa !15
  store ptr %6, ptr %15, align 8, !tbaa !15
  store ptr %7, ptr %16, align 8, !tbaa !15
  call void @llvm.lifetime.start.p0(i64 8, ptr %17) #6
  %21 = load ptr, ptr %13, align 8, !tbaa !17
  store ptr %21, ptr %17, align 8, !tbaa !36
  call void @llvm.lifetime.start.p0(i64 8, ptr %18) #6
  %22 = load ptr, ptr %17, align 8, !tbaa !36
  %23 = getelementptr inbounds double, ptr %22, i64 2
  %24 = load double, ptr %23, align 8, !tbaa !11
  store double %24, ptr %18, align 8, !tbaa !11
  call void @llvm.lifetime.start.p0(i64 8, ptr %19) #6
  %25 = load ptr, ptr %10, align 8, !tbaa !15
  %26 = getelementptr inbounds nuw %struct._generic_N_Vector, ptr %25, i32 0, i32 0
  %27 = load ptr, ptr %26, align 8, !tbaa !44
  %28 = getelementptr inbounds nuw %struct._N_VectorContent_Serial, ptr %27, i32 0, i32 2
  %29 = load ptr, ptr %28, align 8, !tbaa !47
  %30 = getelementptr inbounds double, ptr %29, i64 0
  %31 = load double, ptr %30, align 8, !tbaa !11
  store double %31, ptr %19, align 8, !tbaa !11
  call void @llvm.lifetime.start.p0(i64 8, ptr %20) #6
  %32 = load ptr, ptr %10, align 8, !tbaa !15
  %33 = getelementptr inbounds nuw %struct._generic_N_Vector, ptr %32, i32 0, i32 0
  %34 = load ptr, ptr %33, align 8, !tbaa !44
  %35 = getelementptr inbounds nuw %struct._N_VectorContent_Serial, ptr %34, i32 0, i32 2
  %36 = load ptr, ptr %35, align 8, !tbaa !47
  %37 = getelementptr inbounds double, ptr %36, i64 1
  %38 = load double, ptr %37, align 8, !tbaa !11
  store double %38, ptr %20, align 8, !tbaa !11
  %39 = load ptr, ptr %12, align 8, !tbaa !24
  %40 = getelementptr inbounds nuw %struct._generic_SUNMatrix, ptr %39, i32 0, i32 0
  %41 = load ptr, ptr %40, align 8, !tbaa !51
  %42 = getelementptr inbounds nuw %struct._SUNMatrixContent_Dense, ptr %41, i32 0, i32 4
  %43 = load ptr, ptr %42, align 8, !tbaa !54
  %44 = getelementptr inbounds ptr, ptr %43, i64 0
  %45 = load ptr, ptr %44, align 8, !tbaa !36
  %46 = getelementptr inbounds double, ptr %45, i64 0
  store double 0.000000e+00, ptr %46, align 8, !tbaa !11
  %47 = load ptr, ptr %12, align 8, !tbaa !24
  %48 = getelementptr inbounds nuw %struct._generic_SUNMatrix, ptr %47, i32 0, i32 0
  %49 = load ptr, ptr %48, align 8, !tbaa !51
  %50 = getelementptr inbounds nuw %struct._SUNMatrixContent_Dense, ptr %49, i32 0, i32 4
  %51 = load ptr, ptr %50, align 8, !tbaa !54
  %52 = getelementptr inbounds ptr, ptr %51, i64 1
  %53 = load ptr, ptr %52, align 8, !tbaa !36
  %54 = getelementptr inbounds double, ptr %53, i64 0
  store double 0.000000e+00, ptr %54, align 8, !tbaa !11
  %55 = load double, ptr %18, align 8, !tbaa !11
  %56 = fdiv double %55, 2.000000e+00
  %57 = load double, ptr %18, align 8, !tbaa !11
  %58 = load double, ptr %9, align 8, !tbaa !11
  %59 = load ptr, ptr %17, align 8, !tbaa !36
  %60 = call double @r(double noundef %58, ptr noundef %59)
  %61 = fadd double 1.000000e+00, %60
  %62 = fmul double %57, %61
  %63 = load double, ptr %19, align 8, !tbaa !11
  %64 = fmul double 2.000000e+00, %63
  %65 = load double, ptr %19, align 8, !tbaa !11
  %66 = fmul double %64, %65
  %67 = fdiv double %62, %66
  %68 = fadd double %56, %67
  %69 = load ptr, ptr %12, align 8, !tbaa !24
  %70 = getelementptr inbounds nuw %struct._generic_SUNMatrix, ptr %69, i32 0, i32 0
  %71 = load ptr, ptr %70, align 8, !tbaa !51
  %72 = getelementptr inbounds nuw %struct._SUNMatrixContent_Dense, ptr %71, i32 0, i32 4
  %73 = load ptr, ptr %72, align 8, !tbaa !54
  %74 = getelementptr inbounds ptr, ptr %73, i64 0
  %75 = load ptr, ptr %74, align 8, !tbaa !36
  %76 = getelementptr inbounds double, ptr %75, i64 1
  store double %68, ptr %76, align 8, !tbaa !11
  %77 = load double, ptr %9, align 8, !tbaa !11
  %78 = load ptr, ptr %17, align 8, !tbaa !36
  %79 = call double @s(double noundef %77, ptr noundef %78)
  %80 = fadd double 2.000000e+00, %79
  %81 = load double, ptr %20, align 8, !tbaa !11
  %82 = fmul double 2.000000e+00, %81
  %83 = load double, ptr %20, align 8, !tbaa !11
  %84 = fmul double %82, %83
  %85 = fdiv double %80, %84
  %86 = fsub double -5.000000e-01, %85
  %87 = load ptr, ptr %12, align 8, !tbaa !24
  %88 = getelementptr inbounds nuw %struct._generic_SUNMatrix, ptr %87, i32 0, i32 0
  %89 = load ptr, ptr %88, align 8, !tbaa !51
  %90 = getelementptr inbounds nuw %struct._SUNMatrixContent_Dense, ptr %89, i32 0, i32 4
  %91 = load ptr, ptr %90, align 8, !tbaa !54
  %92 = getelementptr inbounds ptr, ptr %91, i64 1
  %93 = load ptr, ptr %92, align 8, !tbaa !36
  %94 = getelementptr inbounds double, ptr %93, i64 1
  store double %86, ptr %94, align 8, !tbaa !11
  call void @llvm.lifetime.end.p0(i64 8, ptr %20) #6
  call void @llvm.lifetime.end.p0(i64 8, ptr %19) #6
  call void @llvm.lifetime.end.p0(i64 8, ptr %18) #6
  call void @llvm.lifetime.end.p0(i64 8, ptr %17) #6
  ret i32 0
}