; Function Attrs: mustprogress nofree nounwind willreturn memory(readwrite, inaccessiblemem: write) uwtable
define internal noundef i32 @Jf(double noundef %0, ptr noundef readonly captures(none) %1, ptr readnone captures(none) %2, ptr noundef readonly captures(none) %3, ptr noundef readonly captures(none) %4, ptr readnone captures(none) %5, ptr readnone captures(none) %6, ptr readnone captures(none) %7) #5 {
  %9 = getelementptr inbounds nuw i8, ptr %4, i64 16
  %10 = load double, ptr %9, align 8, !tbaa !12
  %11 = load ptr, ptr %1, align 8, !tbaa !18
  %12 = getelementptr inbounds nuw i8, ptr %11, i64 16
  %13 = load ptr, ptr %12, align 8, !tbaa !21
  %14 = load double, ptr %13, align 8, !tbaa !12
  %15 = getelementptr inbounds nuw i8, ptr %13, i64 8
  %16 = load double, ptr %15, align 8, !tbaa !12
  %17 = load ptr, ptr %3, align 8, !tbaa !37
  %18 = getelementptr inbounds nuw i8, ptr %17, i64 32
  %19 = load ptr, ptr %18, align 8, !tbaa !40
  %20 = load ptr, ptr %19, align 8, !tbaa !30
  store double 0.000000e+00, ptr %20, align 8, !tbaa !12
  %21 = getelementptr inbounds nuw i8, ptr %19, i64 8
  %22 = load ptr, ptr %21, align 8, !tbaa !30
  store double 0.000000e+00, ptr %22, align 8, !tbaa !12
  %23 = fmul double %10, 5.000000e-01
  %24 = tail call double @cos(double noundef %0) #9, !tbaa !26
  %25 = fmul double %24, 5.000000e-01
  %26 = fadd double %25, 1.000000e+00
  %27 = fmul double %10, %26
  %28 = fmul double %14, 2.000000e+00
  %29 = fmul double %14, %28
  %30 = fdiv double %27, %29
  %31 = fadd double %23, %30
  %32 = getelementptr inbounds nuw i8, ptr %20, i64 8
  store double %31, ptr %32, align 8, !tbaa !12
  %33 = getelementptr i8, ptr %4, i64 8
  %.val = load double, ptr %33, align 8, !tbaa !12
  %34 = fmul double %0, %.val
  %35 = tail call double @cos(double noundef %34) #9, !tbaa !26
  %36 = fadd double %35, 2.000000e+00
  %37 = fmul double %16, 2.000000e+00
  %38 = fmul double %16, %37
  %39 = fdiv double %36, %38
  %40 = fsub double -5.000000e-01, %39
  %41 = getelementptr inbounds nuw i8, ptr %22, i64 8
  store double %40, ptr %41, align 8, !tbaa !12
  ret i32 0
}